target datalayout = "e-m:e-p270:32:32-p271:32:32-p272:64:64-i64:64-i128:128-f80:128-n8:16:32:64-S128"
target triple = "x86_64-pc-linux-gnu"

%struct.commandline_param_info = type { ptr, i32, i32, ptr, ptr, ptr, ptr, i8, ptr }
%struct._GSList = type { ptr, ptr }

@global_commandline_info = hidden global %struct.commandline_param_info zeroinitializer, align 8
@.str.21 = private unnamed_addr constant [7 x i8] c"%s.%s:\00", align 1

; Function Attrs: null_pointer_is_valid sspstrong uwtable
define hidden void @commandline_options_drop(ptr noundef %0, ptr noundef %1) #0 {
  %3 = alloca ptr, align 8
  %4 = alloca ptr, align 8
  %5 = alloca ptr, align 8
  %6 = alloca ptr, align 8
  %7 = alloca i32, align 4
  store ptr %0, ptr %3, align 8
  store ptr %1, ptr %4, align 8
  call void @llvm.lifetime.start.p0(i64 8, ptr %5) #9
  call void @llvm.lifetime.start.p0(i64 8, ptr %6) #9
  %8 = load ptr, ptr getelementptr inbounds nuw (%struct.commandline_param_info, ptr @global_commandline_info, i32 0, i32 8), align 8
  %9 = icmp eq ptr %8, null
  br i1 %9, label %10, label %11

10:                                               ; preds = %2
  store i32 1, ptr %7, align 4
  br label %30

11:                                               ; preds = %2
  %12 = load ptr, ptr %3, align 8
  %13 = load ptr, ptr %4, align 8
  %14 = call noalias ptr (ptr, ptr, ...) @wmem_strdup_printf(ptr noundef null, ptr noundef @.str.21, ptr noundef %12, ptr noundef %13)
  store ptr %14, ptr %6, align 8
  br label %15

15:                                               ; preds = %20, %11
  %16 = load ptr, ptr getelementptr inbounds nuw (%struct.commandline_param_info, ptr @global_commandline_info, i32 0, i32 8), align 8
  %17 = load ptr, ptr %6, align 8
  %18 = call ptr @g_slist_find_custom(ptr noundef %16, ptr noundef %17, ptr noundef @cl_find_custom)
  store ptr %18, ptr %5, align 8
  %19 = icmp ne ptr null, %18
  br i1 %19, label %20, label %28

20:                                               ; preds = %15
  %21 = load ptr, ptr getelementptr inbounds nuw (%struct.commandline_param_info, ptr @global_commandline_info, i32 0, i32 8), align 8
  %22 = load ptr, ptr %5, align 8
  %23 = call ptr @g_slist_remove_link(ptr noundef %21, ptr noundef %22)
  store ptr %23, ptr getelementptr inbounds nuw (%struct.commandline_param_info, ptr @global_commandline_info, i32 0, i32 8), align 8
  %24 = load ptr, ptr %5, align 8
  %25 = getelementptr inbounds nuw %struct._GSList, ptr %24, i32 0, i32 0
  %26 = load ptr, ptr %25, align 8
  call void @g_free(ptr noundef %26)
  %27 = load ptr, ptr %5, align 8
  call void @g_slist_free_1(ptr noundef %27)
  br label %15, !llvm.loop !12

28:                                               ; preds = %15
  %29 = load ptr, ptr %6, align 8
  call void @g_free(ptr noundef %29)
  store i32 0, ptr %7, align 4
  br label %30

30:                                               ; preds = %28, %10
  call void @llvm.lifetime.end.p0(i64 8, ptr %6) #9
  call void @llvm.lifetime.end.p0(i64 8, ptr %5) #9
  %31 = load i32, ptr %7, align 4
  switch i32 %31, label %33 [
    i32 0, label %32
    i32 1, label %32
  ]

32:                                               ; preds = %30, %30
  ret void

33:                                               ; preds = %30
  unreachable
}