; Function Attrs: null_pointer_is_valid sspstrong uwtable
define hidden void @commandline_options_drop(ptr noundef %0, ptr noundef %1) local_unnamed_addr #0 {
  %3 = load ptr, ptr getelementptr inbounds nuw (i8, ptr @global_commandline_info, i64 56), align 8
  %4 = icmp eq ptr %3, null
  br i1 %4, label %15, label %5

5:                                                ; preds = %2
  %6 = tail call noalias ptr (ptr, ptr, ...) @wmem_strdup_printf(ptr noundef null, ptr noundef nonnull @.str.21, ptr noundef %0, ptr noundef %1)
  %7 = load ptr, ptr getelementptr inbounds nuw (i8, ptr @global_commandline_info, i64 56), align 8
  %8 = tail call ptr @g_slist_find_custom(ptr noundef %7, ptr noundef %6, ptr noundef nonnull @cl_find_custom)
  %.not7 = icmp eq ptr %8, null
  br i1 %.not7, label %._crit_edge, label %.lr.ph

.lr.ph:                                           ; preds = %5, %.lr.ph
  %9 = phi ptr [ %14, %.lr.ph ], [ %8, %5 ]
  %10 = load ptr, ptr getelementptr inbounds nuw (i8, ptr @global_commandline_info, i64 56), align 8
  %11 = tail call ptr @g_slist_remove_link(ptr noundef %10, ptr noundef nonnull %9)
  store ptr %11, ptr getelementptr inbounds nuw (i8, ptr @global_commandline_info, i64 56), align 8
  %12 = load ptr, ptr %9, align 8
  tail call void @g_free(ptr noundef %12)
  tail call void @g_slist_free_1(ptr noundef nonnull %9)
  %13 = load ptr, ptr getelementptr inbounds nuw (i8, ptr @global_commandline_info, i64 56), align 8
  %14 = tail call ptr @g_slist_find_custom(ptr noundef %13, ptr noundef %6, ptr noundef nonnull @cl_find_custom)
  %.not = icmp eq ptr %14, null
  br i1 %.not, label %._crit_edge, label %.lr.ph, !llvm.loop !10

._crit_edge:                                      ; preds = %.lr.ph, %5
  tail call void @g_free(ptr noundef %6)
  br label %15

15:                                               ; preds = %2, %._crit_edge
  ret void
}